(lp0
(lp1
F0.0
aF0.0
aF0.0
aF0.0
aa(lp2
F0.0
aF0.0
aF0.0
aF0.0
aa(lp3
F0.0
aF0.0
aF0.0
aF0.0
aa(lp4
F0.0
aF0.0
aF0.0
aF0.0
aa(lp5
F0.0
aF0.0
aF0.0
aF0.0
aa(lp6
F0.0
aF0.0
aF0.0
aF0.0
aa(lp7
F0.0
aF0.0
aF0.0
aF0.0
aa(lp8
F-3.95203531414714
aF-3.9942792799875613
aF-3.998703247718554
aF-4.044380741387157
aa(lp9
F-4.151418317908984
aF-4.044160678668711
aF-3.9883623176573395
aF-4.023197132424349
aa(lp10
F-3.8796815544223273
aF-3.7336383599769434
aF-3.8050241109502263
aF-3.7400142990736787
aa(lp11
F-3.662710113852037
aF-3.2576617920210427
aF-3.517802242393425
aF-3.543360122750154
aa(lp12
F0.0
aF0.0
aF0.0
aF0.0
aa(lp13
F0.0
aF0.0
aF0.0
aF0.0
aa(lp14
F-3.9751539592934515
aF-3.880755188117246
aF-4.056831093474573
aF-3.9689302209450865
aa(lp15
F-3.863410423109201
aF-3.8161383571963157
aF-3.8958166926157434
aF-3.8006400969220238
aa(lp16
F-3.5100548743964173
aF-3.3007584750467642
aF-3.50556765751396
aF-2.82443178160425
aa(lp17
F-3.234343639593558
aF-0.6692608229691139
aF-3.353590948500375
aF-3.1924773297888627
aa(lp18
F0.0
aF0.0
aF0.0
aF0.0
aa(lp19
F0.0
aF0.0
aF0.0
aF0.0
aa(lp20
F-3.7326593798457917
aF-3.798322553087504
aF-3.650066266103328
aF-3.668446874169982
aa(lp21
F-3.462385190172645
aF-3.433428990076005
aF-3.4294208088996387
aF-2.9162416360913457
aa(lp22
F-2.988512340341109
aF-2.99373904058564
aF-2.9997510397084377
aF-1.0461261477660864
aa(lp23
F-2.8030635599546603
aF0.9932747957236269
aF-2.6901352595266954
aF-2.793217539140453
aa(lp24
F0.0
aF0.0
aF0.0
aF0.0
aa(lp25
F0.0
aF0.0
aF0.0
aF0.0
aa(lp26
F-3.5403582639420064
aF-3.548226450601802
aF-3.657530205283003
aF-3.443880233720491
aa(lp27
F-3.1150549101845435
aF-19.0
aF-3.1174957419895404
aF-1.6741874610325853
aa(lp28
F-2.579191355594846
aF0.5032443458191235
aF-2.6644834222263087
aF-2.4488996890279444
aa(lp29
F-2.03461361190349
aF2.5709461692509623
aF-1.9875269035078438
aF-2.037059675366336
aa(lp30
F0.0
aF0.0
aF0.0
aF0.0
aa(lp31
F0.0
aF0.0
aF0.0
aF0.0
aa(lp32
F-3.7839390572149982
aF-4.537910289392462
aF-3.770399350929969
aF-27.1
aa(lp33
F0.0
aF0.0
aF0.0
aF0.0
aa(lp34
F-1.8213421783000305
aF-1.816706353826925
aF-10.0
aF2.4491386811984728
aa(lp35
F-1.441772388396
aF3.8636309423214836
aF-1.508319527990821
aF-0.01329205233521491
aa(lp36
F0.0
aF0.0
aF0.0
aF0.0
aa(lp37
F0.0
aF0.0
aF0.0
aF0.0
aa(lp38
F-1.6969796030322488
aF-34.39
aF-1.7265935751933346
aF-1.2869306393631768
aa(lp39
F-19.0
aF-1.3708559709588262
aF-2.813617216686725
aF0.7260546417705781
aa(lp40
F-1.1360328206092274
aF3.6409291971787954
aF-2.0357618764510956
aF-0.5593352168360632
aa(lp41
F0.23887139760951967
aF6.0542022565195515
aF-0.7139299247374238
aF-0.025789247516000424
aa(lp42
F0.0
aF0.0
aF0.0
aF0.0
aa(lp43
F0.0
aF0.0
aF0.0
aF0.0
aa(lp44
F0.0
aF0.0
aF0.0
aF0.0
aa(lp45
F-1.1281791428738224
aF-1.0760237987818642
aF-10.0
aF4.149595378984565
aa(lp46
F-0.18081642579397997
aF-0.15075054368803043
aF-0.6972990640000001
aF5.358648289936534
aa(lp47
F-0.1208848910006517
aF7.683319996233852
aF1.3819449900026624
aF1.9553246678960279
aa(lp48
F0.0
aF0.0
aF0.0
aF0.0
aa(lp49
F0.0
aF0.0
aF0.0
aF0.0
aa(lp50
F0.0
aF0.0
aF0.0
aF0.0
aa(lp51
F1.6909741769551014
aF-1.4318821961942036
aF-10.0
aF-1.0661525010846362
aa(lp52
F-0.41042300000000004
aF-27.1
aF-0.5340398209447677
aF5.861913011699696
aa(lp53
F1.0919601846077236
aF8.866499730301381
aF0.8233266957912475
aF2.892190050810142
aa(lp54
F0.0
aF0.0
aF0.0
aF0.0
aa(lp55
F0.0
aF0.0
aF0.0
aF0.0
aa(lp56
F-10.0
aF-2.1647291896597314
aF-2.3243498658441486
aF-2.113763950811756
aa(lp57
F-0.8952230169782354
aF-1.7723774594562431
aF-1.8192254016479372
aF-27.1
aa(lp58
F0.0
aF0.0
aF0.0
aF0.0
aa(lp59
F2.6753674768578066
aF9.999999999667697
aF-10.0
aF4.05976078028618
aa(lp60
F0.0
aF0.0
aF0.0
aF0.0
aa(lp61
F0.0
aF0.0
aF0.0
aF0.0
aa(lp62
F-1.8219346737082567
aF-0.5037021402165334
aF-1.843252786792101
aF-1.8621686470250804
aa(lp63
F-3.282979817585636
aF-2.204651373671976
aF-2.053295532471931
aF-19.0
aa(lp64
F0.0
aF0.0
aF0.0
aF0.0
aa(lp65
F0.0
aF0.0
aF0.0
aF0.0
aa(lp66
F0.0
aF0.0
aF0.0
aF0.0
aa(lp67
F0.0
aF0.0
aF0.0
aF0.0
aa(lp68
F-1.4944940435314282
aF1.7415452642220282
aF-1.0430539927334004
aF-1.1426930642924524
aa(lp69
F-1.2003297140725029
aF1.3074483132119714
aF-0.9730844212716
aF-19.0
aa(lp70
F0.0
aF0.0
aF0.0
aF0.0
aa(lp71
F9.999999999871259
aF2.567658531089034
aF-40.951
aF3.6854741892481786
aa(lp72
F0.0
aF0.0
aF0.0
aF0.0
aa(lp73
F0.0
aF0.0
aF0.0
aF0.0
aa(lp74
F-1.077697427034448
aF-0.7070260020639482
aF-0.41766204057079137
aF3.3749585690153903
aa(lp75
F-0.6150067295839917
aF-0.8234032575030001
aF-0.5814640120230903
aF5.095615517377505
aa(lp76
F-19.0
aF0.8379888435566492
aF0.3737102804734343
aF5.818182073898944
aa(lp77
F5.773947293368808
aF2.688241838235125
aF1.732518883978954
aF3.742425829881045
aa(lp78
F0.0
aF0.0
aF0.0
aF0.0
aa(lp79
F0.0
aF0.0
aF0.0
aF0.0
aa(lp80
F2.335220582762309
aF-1.4121904075211922
aF-1.3406766326736663
aF-1.224087889890375
aa(lp81
F-0.8801728989399646
aF-0.9588291822036547
aF-1.0195867410936938
aF2.7100159684379053
aa(lp82
F1.3244720269017127
aF-0.41441356599936835
aF-0.546044
aF5.474627468632135
aa(lp83
F5.0607272195274415
aF0.1328913772397545
aF-0.3260525596744518
aF0.8013788120763828
aa(lp84
F0.0
aF0.0
aF0.0
aF0.0
aa(lp85
F0.0
aF0.0
aF0.0
aF0.0
aa(lp86
F0.22452328526514415
aF-1.6806142564233415
aF-1.7307761092926603
aF-1.6730651670611452
aa(lp87
F-0.5560798743015404
aF-1.382587433545848
aF-1.4205931754000616
aF-1.3533998308557083
aa(lp88
F3.36970019689919
aF-1.2082702899336086
aF-0.9684056185401799
aF-0.9536168607543785
aa(lp89
F5.055125281061911
aF-0.6092771
aF-0.7746372759589383
aF-0.7112811505799181
aa(lp90
F0.0
aF0.0
aF0.0
aF0.0
aa(lp91
F0.0
aF0.0
aF0.0
aF0.0
aa(lp92
F-1.6586522984094363
aF-2.1267655793315847
aF-2.2188044410578303
aF-2.1297670418405295
aa(lp93
F-1.7868280328088408
aF-1.9248863969828154
aF-2.076918455407147
aF-1.2436999575430787
aa(lp94
F1.1125106934402031
aF-1.3475295040180089
aF-1.313852317439308
aF-1.24235626969928
aa(lp95
F2.1314199339565656
aF-0.895959116561
aF-0.9755966711963804
aF-0.89271672659
aa(lp96
F0.0
aF0.0
aF0.0
aF0.0
aa(lp97
F0.0
aF0.0
aF0.0
aF0.0
aa(lp98
F-2.49567607862733
aF-2.599216951164558
aF-2.506536010900088
aF-2.5753288407464052
aa(lp99
F-2.404136850203332
aF-2.5958158753659704
aF-2.4888583607670736
aF-2.4710487665747483
aa(lp100
F0.0
aF0.0
aF0.0
aF0.0
aa(lp101
F-0.6700103107293963
aF-1.252161270917766
aF-1.24642995019731
aF-1.3561495386233084
aa(lp102
F0.0
aF0.0
aF0.0
aF0.0
aa(lp103
F0.0
aF0.0
aF0.0
aF0.0
aa(lp104
F0.0
aF0.0
aF0.0
aF0.0
aa(lp105
F0.0
aF0.0
aF0.0
aF0.0
aa(lp106
F0.0
aF0.0
aF0.0
aF0.0
aa(lp107
F0.0
aF0.0
aF0.0
aF0.0
aa(lp108
F0.0
aF0.0
aF0.0
aF0.0
aa.